; Function Attrs: mustprogress nounwind willreturn uwtable
define dso_local void @credential_clear_secrets(ptr noundef captures(none) %0) local_unnamed_addr #4 {
  %2 = getelementptr inbounds nuw i8, ptr %0, i64 136
  %3 = load ptr, ptr %2, align 8, !tbaa !4
  tail call void @free(ptr noundef %3) #19
  store ptr null, ptr %2, align 8, !tbaa !4
  %4 = getelementptr inbounds nuw i8, ptr %0, i64 144
  %5 = load ptr, ptr %4, align 8, !tbaa !17
  tail call void @free(ptr noundef %5) #19
  store ptr null, ptr %4, align 8, !tbaa !17
  ret void
}